target datalayout = "e-m:e-p270:32:32-p271:32:32-p272:64:64-i64:64-i128:128-f80:128-n8:16:32:64-S128"
target triple = "x86_64-pc-linux-gnu"

%struct.png_XYZ = type { i32, i32, i32, i32, i32, i32, i32, i32, i32 }
%struct.png_xy = type { i32, i32, i32, i32, i32, i32, i32, i32 }
%struct.png_struct_def = type { [1 x %struct.__jmp_buf_tag], ptr, ptr, i64, ptr, ptr, ptr, ptr, ptr, ptr, ptr, ptr, ptr, i8, i8, i32, i32, i32, i32, %struct.z_stream_s, ptr, i32, i32, i32, i32, i32, i32, i32, i32, i32, i32, i32, i32, i32, i32, i32, i32, i32, i32, i32, i32, i64, i32, i32, i32, ptr, ptr, ptr, ptr, i64, i32, i32, ptr, i16, i32, i16, i8, i8, i8, i8, i8, i8, i8, i8, i8, i8, i8, i8, i8, i8, i8, i16, i8, i32, %struct.png_color_16_struct, %struct.png_color_16_struct, ptr, i32, i32, i32, i32, ptr, ptr, ptr, ptr, ptr, ptr, %struct.png_color_8_struct, %struct.png_color_8_struct, ptr, %struct.png_color_16_struct, ptr, ptr, ptr, ptr, ptr, ptr, ptr, ptr, ptr, i32, i32, i64, i64, i64, i64, i32, i32, ptr, ptr, i32, [29 x i8], i32, ptr, ptr, i32, i32, ptr, i8, i8, i16, i16, ptr, i32, i8, ptr, ptr, ptr, ptr, ptr, ptr, ptr, i8, i32, i32, i32, i64, %struct.png_unknown_chunk_t, i64, ptr, i64, i32, i32, ptr, [4 x ptr], %struct.png_colorspace }
%struct.__jmp_buf_tag = type { [8 x i64], i32, %struct.__sigset_t }
%struct.__sigset_t = type { [16 x i64] }
%struct.z_stream_s = type { ptr, i32, i64, ptr, i32, i64, ptr, ptr, ptr, ptr, ptr, i32, i64, i64 }
%struct.png_color_8_struct = type { i8, i8, i8, i8, i8 }
%struct.png_color_16_struct = type { i8, i16, i16, i16, i16 }
%struct.png_unknown_chunk_t = type { [5 x i8], ptr, i64, i8 }
%struct.png_colorspace = type { i32, %struct.png_xy, %struct.png_XYZ, i16, i16 }

@.str.50 = private unnamed_addr constant [28 x i8] c"Image width is zero in IHDR\00", align 1
@.str.51 = private unnamed_addr constant [28 x i8] c"Invalid image width in IHDR\00", align 1
@.str.52 = private unnamed_addr constant [47 x i8] c"Image width is too large for this architecture\00", align 1
@.str.53 = private unnamed_addr constant [39 x i8] c"Image width exceeds user limit in IHDR\00", align 1
@.str.54 = private unnamed_addr constant [29 x i8] c"Image height is zero in IHDR\00", align 1
@.str.55 = private unnamed_addr constant [29 x i8] c"Invalid image height in IHDR\00", align 1
@.str.56 = private unnamed_addr constant [40 x i8] c"Image height exceeds user limit in IHDR\00", align 1
@.str.57 = private unnamed_addr constant [26 x i8] c"Invalid bit depth in IHDR\00", align 1
@.str.58 = private unnamed_addr constant [27 x i8] c"Invalid color type in IHDR\00", align 1
@.str.59 = private unnamed_addr constant [49 x i8] c"Invalid color type/bit depth combination in IHDR\00", align 1
@.str.60 = private unnamed_addr constant [33 x i8] c"Unknown interlace method in IHDR\00", align 1
@.str.61 = private unnamed_addr constant [35 x i8] c"Unknown compression method in IHDR\00", align 1
@.str.62 = private unnamed_addr constant [49 x i8] c"MNG features are not allowed in a PNG datastream\00", align 1
@.str.63 = private unnamed_addr constant [30 x i8] c"Unknown filter method in IHDR\00", align 1
@.str.64 = private unnamed_addr constant [30 x i8] c"Invalid filter method in IHDR\00", align 1
@.str.65 = private unnamed_addr constant [18 x i8] c"Invalid IHDR data\00", align 1

; Function Attrs: nounwind uwtable
define void @png_check_IHDR(ptr noalias noundef %0, i32 noundef %1, i32 noundef %2, i32 noundef %3, i32 noundef %4, i32 noundef %5, i32 noundef %6, i32 noundef %7) #0 {
  %9 = alloca ptr, align 8
  %10 = alloca i32, align 4
  %11 = alloca i32, align 4
  %12 = alloca i32, align 4
  %13 = alloca i32, align 4
  %14 = alloca i32, align 4
  %15 = alloca i32, align 4
  %16 = alloca i32, align 4
  %17 = alloca i32, align 4
  store ptr %0, ptr %9, align 8
  store i32 %1, ptr %10, align 4
  store i32 %2, ptr %11, align 4
  store i32 %3, ptr %12, align 4
  store i32 %4, ptr %13, align 4
  store i32 %5, ptr %14, align 4
  store i32 %6, ptr %15, align 4
  store i32 %7, ptr %16, align 4
  store i32 0, ptr %17, align 4
  %18 = load i32, ptr %10, align 4
  %19 = icmp eq i32 %18, 0
  br i1 %19, label %20, label %22

20:                                               ; preds = %8
  %21 = load ptr, ptr %9, align 8
  call void @png_warning(ptr noundef %21, ptr noundef @.str.50)
  store i32 1, ptr %17, align 4
  br label %22

22:                                               ; preds = %20, %8
  %23 = load i32, ptr %10, align 4
  %24 = icmp ugt i32 %23, 2147483647
  br i1 %24, label %25, label %27

25:                                               ; preds = %22
  %26 = load ptr, ptr %9, align 8
  call void @png_warning(ptr noundef %26, ptr noundef @.str.51)
  store i32 1, ptr %17, align 4
  br label %27

27:                                               ; preds = %25, %22
  %28 = load i32, ptr %10, align 4
  %29 = add i32 %28, 7
  %30 = zext i32 %29 to i64
  %31 = and i64 %30, -8
  %32 = icmp ugt i64 %31, 2305843009213693944
  br i1 %32, label %33, label %35

33:                                               ; preds = %27
  %34 = load ptr, ptr %9, align 8
  call void @png_warning(ptr noundef %34, ptr noundef @.str.52)
  store i32 1, ptr %17, align 4
  br label %35

35:                                               ; preds = %33, %27
  %36 = load i32, ptr %10, align 4
  %37 = load ptr, ptr %9, align 8
  %38 = getelementptr inbounds %struct.png_struct_def, ptr %37, i32 0, i32 133
  %39 = load i32, ptr %38, align 4
  %40 = icmp ugt i32 %36, %39
  br i1 %40, label %41, label %43

41:                                               ; preds = %35
  %42 = load ptr, ptr %9, align 8
  call void @png_warning(ptr noundef %42, ptr noundef @.str.53)
  store i32 1, ptr %17, align 4
  br label %43

43:                                               ; preds = %41, %35
  %44 = load i32, ptr %11, align 4
  %45 = icmp eq i32 %44, 0
  br i1 %45, label %46, label %48

46:                                               ; preds = %43
  %47 = load ptr, ptr %9, align 8
  call void @png_warning(ptr noundef %47, ptr noundef @.str.54)
  store i32 1, ptr %17, align 4
  br label %48

48:                                               ; preds = %46, %43
  %49 = load i32, ptr %11, align 4
  %50 = icmp ugt i32 %49, 2147483647
  br i1 %50, label %51, label %53

51:                                               ; preds = %48
  %52 = load ptr, ptr %9, align 8
  call void @png_warning(ptr noundef %52, ptr noundef @.str.55)
  store i32 1, ptr %17, align 4
  br label %53

53:                                               ; preds = %51, %48
  %54 = load i32, ptr %11, align 4
  %55 = load ptr, ptr %9, align 8
  %56 = getelementptr inbounds %struct.png_struct_def, ptr %55, i32 0, i32 134
  %57 = load i32, ptr %56, align 8
  %58 = icmp ugt i32 %54, %57
  br i1 %58, label %59, label %61

59:                                               ; preds = %53
  %60 = load ptr, ptr %9, align 8
  call void @png_warning(ptr noundef %60, ptr noundef @.str.56)
  store i32 1, ptr %17, align 4
  br label %61

61:                                               ; preds = %59, %53
  %62 = load i32, ptr %12, align 4
  %63 = icmp ne i32 %62, 1
  br i1 %63, label %64, label %78

64:                                               ; preds = %61
  %65 = load i32, ptr %12, align 4
  %66 = icmp ne i32 %65, 2
  br i1 %66, label %67, label %78

67:                                               ; preds = %64
  %68 = load i32, ptr %12, align 4
  %69 = icmp ne i32 %68, 4
  br i1 %69, label %70, label %78

70:                                               ; preds = %67
  %71 = load i32, ptr %12, align 4
  %72 = icmp ne i32 %71, 8
  br i1 %72, label %73, label %78

73:                                               ; preds = %70
  %74 = load i32, ptr %12, align 4
  %75 = icmp ne i32 %74, 16
  br i1 %75, label %76, label %78

76:                                               ; preds = %73
  %77 = load ptr, ptr %9, align 8
  call void @png_warning(ptr noundef %77, ptr noundef @.str.57)
  store i32 1, ptr %17, align 4
  br label %78

78:                                               ; preds = %76, %73, %70, %67, %64, %61
  %79 = load i32, ptr %13, align 4
  %80 = icmp slt i32 %79, 0
  br i1 %80, label %90, label %81

81:                                               ; preds = %78
  %82 = load i32, ptr %13, align 4
  %83 = icmp eq i32 %82, 1
  br i1 %83, label %90, label %84

84:                                               ; preds = %81
  %85 = load i32, ptr %13, align 4
  %86 = icmp eq i32 %85, 5
  br i1 %86, label %90, label %87

87:                                               ; preds = %84
  %88 = load i32, ptr %13, align 4
  %89 = icmp sgt i32 %88, 6
  br i1 %89, label %90, label %92

90:                                               ; preds = %87, %84, %81, %78
  %91 = load ptr, ptr %9, align 8
  call void @png_warning(ptr noundef %91, ptr noundef @.str.58)
  store i32 1, ptr %17, align 4
  br label %92

92:                                               ; preds = %90, %87
  %93 = load i32, ptr %13, align 4
  %94 = icmp eq i32 %93, 3
  br i1 %94, label %95, label %98

95:                                               ; preds = %92
  %96 = load i32, ptr %12, align 4
  %97 = icmp sgt i32 %96, 8
  br i1 %97, label %110, label %98

98:                                               ; preds = %95, %92
  %99 = load i32, ptr %13, align 4
  %100 = icmp eq i32 %99, 2
  br i1 %100, label %107, label %101

101:                                              ; preds = %98
  %102 = load i32, ptr %13, align 4
  %103 = icmp eq i32 %102, 4
  br i1 %103, label %107, label %104

104:                                              ; preds = %101
  %105 = load i32, ptr %13, align 4
  %106 = icmp eq i32 %105, 6
  br i1 %106, label %107, label %112

107:                                              ; preds = %104, %101, %98
  %108 = load i32, ptr %12, align 4
  %109 = icmp slt i32 %108, 8
  br i1 %109, label %110, label %112

110:                                              ; preds = %107, %95
  %111 = load ptr, ptr %9, align 8
  call void @png_warning(ptr noundef %111, ptr noundef @.str.59)
  store i32 1, ptr %17, align 4
  br label %112

112:                                              ; preds = %110, %107, %104
  %113 = load i32, ptr %14, align 4
  %114 = icmp sge i32 %113, 2
  br i1 %114, label %115, label %117

115:                                              ; preds = %112
  %116 = load ptr, ptr %9, align 8
  call void @png_warning(ptr noundef %116, ptr noundef @.str.60)
  store i32 1, ptr %17, align 4
  br label %117

117:                                              ; preds = %115, %112
  %118 = load i32, ptr %15, align 4
  %119 = icmp ne i32 %118, 0
  br i1 %119, label %120, label %122

120:                                              ; preds = %117
  %121 = load ptr, ptr %9, align 8
  call void @png_warning(ptr noundef %121, ptr noundef @.str.61)
  store i32 1, ptr %17, align 4
  br label %122

122:                                              ; preds = %120, %117
  %123 = load ptr, ptr %9, align 8
  %124 = getelementptr inbounds %struct.png_struct_def, ptr %123, i32 0, i32 15
  %125 = load i32, ptr %124, align 4
  %126 = and i32 %125, 4096
  %127 = icmp ne i32 %126, 0
  br i1 %127, label %128, label %135

128:                                              ; preds = %122
  %129 = load ptr, ptr %9, align 8
  %130 = getelementptr inbounds %struct.png_struct_def, ptr %129, i32 0, i32 123
  %131 = load i32, ptr %130, align 8
  %132 = icmp ne i32 %131, 0
  br i1 %132, label %133, label %135

133:                                              ; preds = %128
  %134 = load ptr, ptr %9, align 8
  call void @png_warning(ptr noundef %134, ptr noundef @.str.62)
  br label %135

135:                                              ; preds = %133, %128, %122
  %136 = load i32, ptr %16, align 4
  %137 = icmp ne i32 %136, 0
  br i1 %137, label %138, label %170

138:                                              ; preds = %135
  %139 = load ptr, ptr %9, align 8
  %140 = getelementptr inbounds %struct.png_struct_def, ptr %139, i32 0, i32 123
  %141 = load i32, ptr %140, align 8
  %142 = and i32 %141, 4
  %143 = icmp ne i32 %142, 0
  br i1 %143, label %144, label %159

144:                                              ; preds = %138
  %145 = load i32, ptr %16, align 4
  %146 = icmp eq i32 %145, 64
  br i1 %146, label %147, label %159

147:                                              ; preds = %144
  %148 = load ptr, ptr %9, align 8
  %149 = getelementptr inbounds %struct.png_struct_def, ptr %148, i32 0, i32 15
  %150 = load i32, ptr %149, align 4
  %151 = and i32 %150, 4096
  %152 = icmp eq i32 %151, 0
  br i1 %152, label %153, label %159

153:                                              ; preds = %147
  %154 = load i32, ptr %13, align 4
  %155 = icmp eq i32 %154, 2
  br i1 %155, label %161, label %156

156:                                              ; preds = %153
  %157 = load i32, ptr %13, align 4
  %158 = icmp eq i32 %157, 6
  br i1 %158, label %161, label %159

159:                                              ; preds = %156, %147, %144, %138
  %160 = load ptr, ptr %9, align 8
  call void @png_warning(ptr noundef %160, ptr noundef @.str.63)
  store i32 1, ptr %17, align 4
  br label %161

161:                                              ; preds = %159, %156, %153
  %162 = load ptr, ptr %9, align 8
  %163 = getelementptr inbounds %struct.png_struct_def, ptr %162, i32 0, i32 15
  %164 = load i32, ptr %163, align 4
  %165 = and i32 %164, 4096
  %166 = icmp ne i32 %165, 0
  br i1 %166, label %167, label %169

167:                                              ; preds = %161
  %168 = load ptr, ptr %9, align 8
  call void @png_warning(ptr noundef %168, ptr noundef @.str.64)
  store i32 1, ptr %17, align 4
  br label %169

169:                                              ; preds = %167, %161
  br label %170

170:                                              ; preds = %169, %135
  %171 = load i32, ptr %17, align 4
  %172 = icmp eq i32 %171, 1
  br i1 %172, label %173, label %175

173:                                              ; preds = %170
  %174 = load ptr, ptr %9, align 8
  call void @png_error(ptr noundef %174, ptr noundef @.str.65) #10
  unreachable

175:                                              ; preds = %170
  ret void
}