; Function Attrs: nounwind uwtable
define void @png_check_IHDR(ptr noalias noundef %0, i32 noundef %1, i32 noundef %2, i32 noundef %3, i32 noundef %4, i32 noundef %5, i32 noundef %6, i32 noundef %7) local_unnamed_addr #0 {
  %9 = icmp eq i32 %1, 0
  br i1 %9, label %.sink.split, label %10

10:                                               ; preds = %8
  %11 = icmp slt i32 %1, 0
  br i1 %11, label %.sink.split, label %12

.sink.split:                                      ; preds = %10, %8
  %.str.50.sink = phi ptr [ @.str.50, %8 ], [ @.str.51, %10 ]
  tail call void @png_warning(ptr noundef %0, ptr noundef nonnull %.str.50.sink) #29
  br label %12

12:                                               ; preds = %.sink.split, %10
  %.1 = phi i32 [ 0, %10 ], [ 1, %.sink.split ]
  %13 = getelementptr inbounds i8, ptr %0, i64 1060
  %14 = load i32, ptr %13, align 4
  %15 = icmp ult i32 %14, %1
  br i1 %15, label %16, label %17

16:                                               ; preds = %12
  tail call void @png_warning(ptr noundef nonnull %0, ptr noundef nonnull @.str.53) #29
  br label %17

17:                                               ; preds = %16, %12
  %.3 = phi i32 [ 1, %16 ], [ %.1, %12 ]
  %18 = icmp eq i32 %2, 0
  br i1 %18, label %.sink.split92, label %19

19:                                               ; preds = %17
  %20 = icmp slt i32 %2, 0
  br i1 %20, label %.sink.split92, label %21

.sink.split92:                                    ; preds = %19, %17
  %.str.54.sink = phi ptr [ @.str.54, %17 ], [ @.str.55, %19 ]
  tail call void @png_warning(ptr noundef nonnull %0, ptr noundef nonnull %.str.54.sink) #29
  br label %21

21:                                               ; preds = %.sink.split92, %19
  %.5 = phi i32 [ %.3, %19 ], [ 1, %.sink.split92 ]
  %22 = getelementptr inbounds i8, ptr %0, i64 1064
  %23 = load i32, ptr %22, align 8
  %24 = icmp ult i32 %23, %2
  br i1 %24, label %25, label %26

25:                                               ; preds = %21
  tail call void @png_warning(ptr noundef nonnull %0, ptr noundef nonnull @.str.56) #29
  br label %26

26:                                               ; preds = %25, %21
  %.6 = phi i32 [ 1, %25 ], [ %.5, %21 ]
  switch i32 %3, label %27 [
    i32 16, label %28
    i32 8, label %28
    i32 4, label %28
    i32 2, label %28
    i32 1, label %28
  ]

27:                                               ; preds = %26
  tail call void @png_warning(ptr noundef nonnull %0, ptr noundef nonnull @.str.57) #29
  br label %28

28:                                               ; preds = %26, %26, %26, %26, %26, %27
  %.7 = phi i32 [ 1, %27 ], [ %.6, %26 ], [ %.6, %26 ], [ %.6, %26 ], [ %.6, %26 ], [ %.6, %26 ]
  %29 = and i32 %4, -5
  %30 = icmp eq i32 %29, 1
  %31 = icmp ugt i32 %4, 6
  %or.cond13 = or i1 %31, %30
  br i1 %or.cond13, label %32, label %33

32:                                               ; preds = %28
  tail call void @png_warning(ptr noundef nonnull %0, ptr noundef nonnull @.str.58) #29
  br label %33

33:                                               ; preds = %28, %32
  %.8 = phi i32 [ 1, %32 ], [ %.7, %28 ]
  %34 = icmp eq i32 %4, 3
  %35 = icmp sgt i32 %3, 8
  %or.cond15 = and i1 %35, %34
  br i1 %or.cond15, label %40, label %36

36:                                               ; preds = %33
  %37 = icmp eq i32 %4, 4
  %38 = icmp eq i32 %29, 2
  %or.cond19 = or i1 %37, %38
  %39 = icmp slt i32 %3, 8
  %or.cond21 = and i1 %39, %or.cond19
  br i1 %or.cond21, label %40, label %41

40:                                               ; preds = %36, %33
  tail call void @png_warning(ptr noundef nonnull %0, ptr noundef nonnull @.str.59) #29
  br label %41

41:                                               ; preds = %36, %40
  %.9 = phi i32 [ 1, %40 ], [ %.8, %36 ]
  %42 = icmp sgt i32 %5, 1
  br i1 %42, label %43, label %44

43:                                               ; preds = %41
  tail call void @png_warning(ptr noundef nonnull %0, ptr noundef nonnull @.str.60) #29
  br label %44

44:                                               ; preds = %43, %41
  %.10 = phi i32 [ 1, %43 ], [ %.9, %41 ]
  %.not = icmp eq i32 %6, 0
  br i1 %.not, label %46, label %45

45:                                               ; preds = %44
  tail call void @png_warning(ptr noundef nonnull %0, ptr noundef nonnull @.str.61) #29
  br label %46

46:                                               ; preds = %45, %44
  %.11 = phi i32 [ 1, %45 ], [ %.10, %44 ]
  %47 = getelementptr inbounds i8, ptr %0, i64 300
  %48 = load i32, ptr %47, align 4
  %49 = and i32 %48, 4096
  %.not77 = icmp eq i32 %49, 0
  br i1 %.not77, label %54, label %50

50:                                               ; preds = %46
  %51 = getelementptr inbounds i8, ptr %0, i64 992
  %52 = load i32, ptr %51, align 8
  %.not78 = icmp eq i32 %52, 0
  br i1 %.not78, label %54, label %53

53:                                               ; preds = %50
  tail call void @png_warning(ptr noundef nonnull %0, ptr noundef nonnull @.str.62) #29
  br label %54

54:                                               ; preds = %53, %50, %46
  %.not79 = icmp eq i32 %7, 0
  br i1 %.not79, label %.thread87, label %55

55:                                               ; preds = %54
  %56 = getelementptr inbounds i8, ptr %0, i64 992
  %57 = load i32, ptr %56, align 8
  %58 = and i32 %57, 4
  %59 = icmp ne i32 %58, 0
  %60 = icmp eq i32 %7, 64
  %or.cond23 = and i1 %60, %59
  br i1 %or.cond23, label %61, label %65

61:                                               ; preds = %55
  %62 = load i32, ptr %47, align 4
  %63 = and i32 %62, 4096
  %64 = icmp eq i32 %63, 0
  %or.cond25 = icmp eq i32 %29, 2
  %or.cond = and i1 %or.cond25, %64
  br i1 %or.cond, label %.thread87, label %65

65:                                               ; preds = %55, %61
  tail call void @png_warning(ptr noundef nonnull %0, ptr noundef nonnull @.str.63) #29
  %.pre = load i32, ptr %47, align 4
  %.pre86 = and i32 %.pre, 4096
  %66 = icmp eq i32 %.pre86, 0
  br i1 %66, label %.thread90, label %.thread84

.thread84:                                        ; preds = %65
  tail call void @png_warning(ptr noundef nonnull %0, ptr noundef nonnull @.str.64) #29
  br label %.thread90

.thread87:                                        ; preds = %61, %54
  %67 = icmp eq i32 %.11, 1
  br i1 %67, label %.thread90, label %68

.thread90:                                        ; preds = %65, %.thread84, %.thread87
  tail call void @png_error(ptr noundef nonnull %0, ptr noundef nonnull @.str.65) #27
  unreachable

68:                                               ; preds = %.thread87
  ret void
}